target datalayout = "e-m:e-p270:32:32-p271:32:32-p272:64:64-i64:64-i128:128-f80:128-n8:16:32:64-S128"
target triple = "x86_64-pc-linux-gnu"

%struct.global_State = type { ptr, ptr, %struct.GCState, %struct.GCstr, i8, i8, i8, i8, %struct.StrInternState, i32, %struct.GCRef, %struct.SBuf, %union.TValue, %union.TValue, %struct.Node, %union.TValue, %struct.GCupval, i32, i32, ptr, ptr, ptr, i32, i32, %struct.GCRef, %struct.MRef, %struct.MRef, %struct.PRNGState, [39 x %struct.GCRef] }
%struct.GCState = type { i64, i64, i8, i8, i8, i8, i32, %struct.GCRef, %struct.MRef, %struct.GCRef, %struct.GCRef, %struct.GCRef, %struct.GCRef, i64, i64, i32, i32, %struct.MRef }
%struct.GCstr = type { %struct.GCRef, i8, i8, i8, i8, i32, i32, i32 }
%struct.StrInternState = type { ptr, i32, i32, i32, i8, i8, i8, i8, i64 }
%struct.SBuf = type { ptr, ptr, ptr, %struct.MRef }
%struct.Node = type { %union.TValue, %union.TValue, %struct.MRef }
%union.TValue = type { i64 }
%struct.GCupval = type { %struct.GCRef, i8, i8, i8, i8, %union.anon, %struct.MRef, i32 }
%union.anon = type { %struct.anon.1 }
%struct.anon.1 = type { %struct.GCRef, %struct.GCRef }
%struct.GCRef = type { i64 }
%struct.MRef = type { i64 }
%struct.PRNGState = type { [4 x i64] }
%struct.GChead = type { %struct.GCRef, i8, i8, i8, i8, %struct.GCRef, %struct.GCRef, %struct.GCRef }

@.str.1 = private unnamed_addr constant [23 x i8] c"copy of dead GC object\00", align 1

; Function Attrs: alwaysinline nounwind uwtable
define internal void @checklivetv(ptr noundef %0, ptr noundef %1, ptr noundef %2) #4 {
  %4 = alloca ptr, align 8
  %5 = alloca ptr, align 8
  %6 = alloca ptr, align 8
  store ptr %0, ptr %4, align 8, !tbaa !37
  store ptr %1, ptr %5, align 8, !tbaa !45
  store ptr %2, ptr %6, align 8, !tbaa !118
  ret void
}

; Function Attrs: nounwind uwtable
define hidden void @lj_gc_barrierf(ptr noundef %0, ptr noundef %1, ptr noundef %2) #0 {
  %4 = alloca ptr, align 8
  %5 = alloca ptr, align 8
  %6 = alloca ptr, align 8
  store ptr %0, ptr %4, align 8, !tbaa !4
  store ptr %1, ptr %5, align 8, !tbaa !28
  store ptr %2, ptr %6, align 8, !tbaa !28
  %7 = load ptr, ptr %4, align 8, !tbaa !4
  %8 = getelementptr inbounds nuw %struct.global_State, ptr %7, i32 0, i32 2
  %9 = getelementptr inbounds nuw %struct.GCState, ptr %8, i32 0, i32 3
  %10 = load i8, ptr %9, align 1, !tbaa !84
  %11 = zext i8 %10 to i32
  %12 = icmp eq i32 %11, 1
  br i1 %12, label %20, label %13

13:                                               ; preds = %3
  %14 = load ptr, ptr %4, align 8, !tbaa !4
  %15 = getelementptr inbounds nuw %struct.global_State, ptr %14, i32 0, i32 2
  %16 = getelementptr inbounds nuw %struct.GCState, ptr %15, i32 0, i32 3
  %17 = load i8, ptr %16, align 1, !tbaa !84
  %18 = zext i8 %17 to i32
  %19 = icmp eq i32 %18, 2
  br i1 %19, label %20, label %23

20:                                               ; preds = %13, %3
  %21 = load ptr, ptr %4, align 8, !tbaa !4
  %22 = load ptr, ptr %6, align 8, !tbaa !28
  call void @gc_mark(ptr noundef %21, ptr noundef %22)
  br label %39

23:                                               ; preds = %13
  %24 = load ptr, ptr %5, align 8, !tbaa !28
  %25 = getelementptr inbounds nuw %struct.GChead, ptr %24, i32 0, i32 1
  %26 = load i8, ptr %25, align 8, !tbaa !30
  %27 = zext i8 %26 to i32
  %28 = and i32 %27, 248
  %29 = load ptr, ptr %4, align 8, !tbaa !4
  %30 = getelementptr inbounds nuw %struct.global_State, ptr %29, i32 0, i32 2
  %31 = getelementptr inbounds nuw %struct.GCState, ptr %30, i32 0, i32 2
  %32 = load i8, ptr %31, align 8, !tbaa !44
  %33 = zext i8 %32 to i32
  %34 = and i32 %33, 3
  %35 = or i32 %28, %34
  %36 = trunc i32 %35 to i8
  %37 = load ptr, ptr %5, align 8, !tbaa !28
  %38 = getelementptr inbounds nuw %struct.GChead, ptr %37, i32 0, i32 1
  store i8 %36, ptr %38, align 8, !tbaa !30
  br label %39

39:                                               ; preds = %23, %20
  ret void
}

; Function Attrs: alwaysinline nounwind uwtable
define internal void @copyTV(ptr noundef %0, ptr noundef %1, ptr noundef %2) #4 {
  %4 = alloca ptr, align 8
  %5 = alloca ptr, align 8
  %6 = alloca ptr, align 8
  store ptr %0, ptr %4, align 8, !tbaa !37
  store ptr %1, ptr %5, align 8, !tbaa !45
  store ptr %2, ptr %6, align 8, !tbaa !45
  %7 = load ptr, ptr %5, align 8, !tbaa !45
  %8 = load ptr, ptr %6, align 8, !tbaa !45
  call void @llvm.memcpy.p0.p0.i64(ptr align 8 %7, ptr align 8 %8, i64 8, i1 false), !tbaa.struct !54
  %9 = load ptr, ptr %4, align 8, !tbaa !37
  %10 = load ptr, ptr %5, align 8, !tbaa !45
  call void @checklivetv(ptr noundef %9, ptr noundef %10, ptr noundef @.str.1)
  ret void
}

; Function Attrs: nounwind uwtable
define hidden void @lj_gc_closeuv(ptr noundef %0, ptr noundef %1) #0 {
  %3 = alloca ptr, align 8
  %4 = alloca ptr, align 8
  %5 = alloca ptr, align 8
  store ptr %0, ptr %3, align 8, !tbaa !4
  store ptr %1, ptr %4, align 8, !tbaa !108
  call void @llvm.lifetime.start.p0(i64 8, ptr %5) #7
  %6 = load ptr, ptr %4, align 8, !tbaa !108
  store ptr %6, ptr %5, align 8, !tbaa !28
  %7 = load ptr, ptr %3, align 8, !tbaa !4
  %8 = getelementptr inbounds nuw %struct.global_State, ptr %7, i32 0, i32 10
  %9 = getelementptr inbounds nuw %struct.GCRef, ptr %8, i32 0, i32 0
  %10 = load i64, ptr %9, align 8, !tbaa !13
  %11 = inttoptr i64 %10 to ptr
  %12 = load ptr, ptr %4, align 8, !tbaa !108
  %13 = getelementptr inbounds nuw %struct.GCupval, ptr %12, i32 0, i32 5
  %14 = load ptr, ptr %4, align 8, !tbaa !108
  %15 = getelementptr inbounds nuw %struct.GCupval, ptr %14, i32 0, i32 6
  %16 = getelementptr inbounds nuw %struct.MRef, ptr %15, i32 0, i32 0
  %17 = load i64, ptr %16, align 8, !tbaa !110
  %18 = inttoptr i64 %17 to ptr
  call void @copyTV(ptr noundef %11, ptr noundef %13, ptr noundef %18)
  %19 = load ptr, ptr %4, align 8, !tbaa !108
  %20 = getelementptr inbounds nuw %struct.GCupval, ptr %19, i32 0, i32 5
  %21 = ptrtoint ptr %20 to i64
  %22 = load ptr, ptr %4, align 8, !tbaa !108
  %23 = getelementptr inbounds nuw %struct.GCupval, ptr %22, i32 0, i32 6
  %24 = getelementptr inbounds nuw %struct.MRef, ptr %23, i32 0, i32 0
  store i64 %21, ptr %24, align 8, !tbaa !110
  %25 = load ptr, ptr %4, align 8, !tbaa !108
  %26 = getelementptr inbounds nuw %struct.GCupval, ptr %25, i32 0, i32 3
  store i8 1, ptr %26, align 2, !tbaa !111
  %27 = load ptr, ptr %3, align 8, !tbaa !4
  %28 = getelementptr inbounds nuw %struct.global_State, ptr %27, i32 0, i32 2
  %29 = getelementptr inbounds nuw %struct.GCState, ptr %28, i32 0, i32 7
  %30 = getelementptr inbounds nuw %struct.GCRef, ptr %29, i32 0, i32 0
  %31 = load i64, ptr %30, align 8, !tbaa !43
  %32 = load ptr, ptr %5, align 8, !tbaa !28
  %33 = getelementptr inbounds nuw %struct.GChead, ptr %32, i32 0, i32 0
  %34 = getelementptr inbounds nuw %struct.GCRef, ptr %33, i32 0, i32 0
  store i64 %31, ptr %34, align 8, !tbaa !30
  %35 = load ptr, ptr %5, align 8, !tbaa !28
  %36 = ptrtoint ptr %35 to i64
  %37 = load ptr, ptr %3, align 8, !tbaa !4
  %38 = getelementptr inbounds nuw %struct.global_State, ptr %37, i32 0, i32 2
  %39 = getelementptr inbounds nuw %struct.GCState, ptr %38, i32 0, i32 7
  %40 = getelementptr inbounds nuw %struct.GCRef, ptr %39, i32 0, i32 0
  store i64 %36, ptr %40, align 8, !tbaa !43
  %41 = load ptr, ptr %5, align 8, !tbaa !28
  %42 = getelementptr inbounds nuw %struct.GChead, ptr %41, i32 0, i32 1
  %43 = load i8, ptr %42, align 8, !tbaa !30
  %44 = zext i8 %43 to i32
  %45 = and i32 %44, 7
  %46 = icmp ne i32 %45, 0
  br i1 %46, label %114, label %47

47:                                               ; preds = %2
  %48 = load ptr, ptr %3, align 8, !tbaa !4
  %49 = getelementptr inbounds nuw %struct.global_State, ptr %48, i32 0, i32 2
  %50 = getelementptr inbounds nuw %struct.GCState, ptr %49, i32 0, i32 3
  %51 = load i8, ptr %50, align 1, !tbaa !84
  %52 = zext i8 %51 to i32
  %53 = icmp eq i32 %52, 1
  br i1 %53, label %61, label %54

54:                                               ; preds = %47
  %55 = load ptr, ptr %3, align 8, !tbaa !4
  %56 = getelementptr inbounds nuw %struct.global_State, ptr %55, i32 0, i32 2
  %57 = getelementptr inbounds nuw %struct.GCState, ptr %56, i32 0, i32 3
  %58 = load i8, ptr %57, align 1, !tbaa !84
  %59 = zext i8 %58 to i32
  %60 = icmp eq i32 %59, 2
  br i1 %60, label %61, label %97

61:                                               ; preds = %54, %47
  %62 = load ptr, ptr %5, align 8, !tbaa !28
  %63 = getelementptr inbounds nuw %struct.GChead, ptr %62, i32 0, i32 1
  %64 = load i8, ptr %63, align 8, !tbaa !30
  %65 = zext i8 %64 to i32
  %66 = or i32 %65, 4
  %67 = trunc i32 %66 to i8
  store i8 %67, ptr %63, align 8, !tbaa !30
  %68 = load ptr, ptr %4, align 8, !tbaa !108
  %69 = getelementptr inbounds nuw %struct.GCupval, ptr %68, i32 0, i32 5
  %70 = load i64, ptr %69, align 8, !tbaa !30
  %71 = ashr i64 %70, 47
  %72 = trunc i64 %71 to i32
  %73 = sub i32 %72, -4
  %74 = icmp ugt i32 %73, -10
  br i1 %74, label %75, label %96

75:                                               ; preds = %61
  %76 = load ptr, ptr %4, align 8, !tbaa !108
  %77 = getelementptr inbounds nuw %struct.GCupval, ptr %76, i32 0, i32 5
  %78 = getelementptr inbounds nuw %struct.GCRef, ptr %77, i32 0, i32 0
  %79 = load i64, ptr %78, align 8, !tbaa !30
  %80 = and i64 %79, 140737488355327
  %81 = inttoptr i64 %80 to ptr
  %82 = getelementptr inbounds nuw %struct.GChead, ptr %81, i32 0, i32 1
  %83 = load i8, ptr %82, align 8, !tbaa !30
  %84 = zext i8 %83 to i32
  %85 = and i32 %84, 3
  %86 = icmp ne i32 %85, 0
  br i1 %86, label %87, label %96

87:                                               ; preds = %75
  %88 = load ptr, ptr %3, align 8, !tbaa !4
  %89 = load ptr, ptr %5, align 8, !tbaa !28
  %90 = load ptr, ptr %4, align 8, !tbaa !108
  %91 = getelementptr inbounds nuw %struct.GCupval, ptr %90, i32 0, i32 5
  %92 = getelementptr inbounds nuw %struct.GCRef, ptr %91, i32 0, i32 0
  %93 = load i64, ptr %92, align 8, !tbaa !30
  %94 = and i64 %93, 140737488355327
  %95 = inttoptr i64 %94 to ptr
  call void @lj_gc_barrierf(ptr noundef %88, ptr noundef %89, ptr noundef %95)
  br label %96

96:                                               ; preds = %87, %75, %61
  br label %113

97:                                               ; preds = %54
  %98 = load ptr, ptr %5, align 8, !tbaa !28
  %99 = getelementptr inbounds nuw %struct.GChead, ptr %98, i32 0, i32 1
  %100 = load i8, ptr %99, align 8, !tbaa !30
  %101 = zext i8 %100 to i32
  %102 = and i32 %101, 248
  %103 = load ptr, ptr %3, align 8, !tbaa !4
  %104 = getelementptr inbounds nuw %struct.global_State, ptr %103, i32 0, i32 2
  %105 = getelementptr inbounds nuw %struct.GCState, ptr %104, i32 0, i32 2
  %106 = load i8, ptr %105, align 8, !tbaa !44
  %107 = zext i8 %106 to i32
  %108 = and i32 %107, 3
  %109 = or i32 %102, %108
  %110 = trunc i32 %109 to i8
  %111 = load ptr, ptr %5, align 8, !tbaa !28
  %112 = getelementptr inbounds nuw %struct.GChead, ptr %111, i32 0, i32 1
  store i8 %110, ptr %112, align 8, !tbaa !30
  br label %113

113:                                              ; preds = %97, %96
  br label %114

114:                                              ; preds = %113, %2
  call void @llvm.lifetime.end.p0(i64 8, ptr %5) #7
  ret void
}