; Function Attrs: nofree nosync nounwind memory(readwrite, inaccessiblemem: none) uwtable
define hidden void @lj_gc_closeuv(ptr noundef %0, ptr noundef initializes((16, 24)) %1) local_unnamed_addr #3 {
  %3 = getelementptr inbounds nuw i8, ptr %1, i64 16
  %4 = getelementptr inbounds nuw i8, ptr %1, i64 32
  %5 = load i64, ptr %4, align 8, !tbaa !77
  %6 = inttoptr i64 %5 to ptr
  %7 = load i64, ptr %6, align 8, !tbaa !23
  store i64 %7, ptr %3, align 8, !tbaa !23
  %8 = ptrtoint ptr %3 to i64
  store i64 %8, ptr %4, align 8, !tbaa !77
  %9 = getelementptr inbounds nuw i8, ptr %1, i64 10
  store i8 1, ptr %9, align 2, !tbaa !106
  %10 = getelementptr inbounds nuw i8, ptr %0, i64 40
  %11 = load i64, ptr %10, align 8, !tbaa !34
  store i64 %11, ptr %1, align 8, !tbaa !23
  %12 = ptrtoint ptr %1 to i64
  store i64 %12, ptr %10, align 8, !tbaa !34
  %13 = getelementptr inbounds nuw i8, ptr %1, i64 8
  %14 = load i8, ptr %13, align 8, !tbaa !23
  %15 = and i8 %14, 7
  %.not = icmp eq i8 %15, 0
  br i1 %.not, label %16, label %lj_gc_barrierf.exit

16:                                               ; preds = %2
  %17 = getelementptr inbounds nuw i8, ptr %0, i64 33
  %18 = load i8, ptr %17, align 1, !tbaa !70
  %.off = add i8 %18, -1
  %switch = icmp ult i8 %.off, 2
  br i1 %switch, label %19, label %40

19:                                               ; preds = %16
  %20 = or disjoint i8 %14, 4
  store i8 %20, ptr %13, align 8, !tbaa !23
  %21 = load i64, ptr %3, align 8, !tbaa !23
  %22 = ashr i64 %21, 47
  %23 = trunc nsw i64 %22 to i32
  %24 = add nsw i32 %23, 13
  %25 = icmp ult i32 %24, 9
  br i1 %25, label %26, label %lj_gc_barrierf.exit

26:                                               ; preds = %19
  %27 = and i64 %21, 140737488355327
  %28 = inttoptr i64 %27 to ptr
  %29 = getelementptr inbounds nuw i8, ptr %28, i64 8
  %30 = load i8, ptr %29, align 8, !tbaa !23
  %31 = and i8 %30, 3
  %.not23 = icmp eq i8 %31, 0
  br i1 %.not23, label %lj_gc_barrierf.exit, label %32

32:                                               ; preds = %26
  %33 = load i8, ptr %17, align 1, !tbaa !70
  %.off.i = add i8 %33, -1
  %switch.i = icmp ult i8 %.off.i, 2
  br i1 %switch.i, label %34, label %35

34:                                               ; preds = %32
  tail call fastcc void @gc_mark(ptr noundef nonnull %0, ptr noundef nonnull %28)
  br label %lj_gc_barrierf.exit

35:                                               ; preds = %32
  %36 = getelementptr inbounds nuw i8, ptr %0, i64 32
  %37 = load i8, ptr %36, align 8, !tbaa !35
  %38 = and i8 %37, 3
  %39 = or disjoint i8 %38, %14
  store i8 %39, ptr %13, align 8, !tbaa !23
  br label %lj_gc_barrierf.exit

40:                                               ; preds = %16
  %41 = getelementptr inbounds nuw i8, ptr %0, i64 32
  %42 = load i8, ptr %41, align 8, !tbaa !35
  %43 = and i8 %42, 3
  %44 = or disjoint i8 %43, %14
  store i8 %44, ptr %13, align 8, !tbaa !23
  br label %lj_gc_barrierf.exit

lj_gc_barrierf.exit:                              ; preds = %35, %34, %40, %26, %19, %2
  ret void
}